target datalayout = "e-m:e-p270:32:32-p271:32:32-p272:64:64-i64:64-i128:128-f80:128-n8:16:32:64-S128"
target triple = "x86_64-pc-linux-gnu"

%"class.Ipopt::StdInterfaceTNLP" = type { %"class.Ipopt::TNLP.base", %"class.Ipopt::SmartPtr", i32, i32, ptr, ptr, ptr, ptr, i32, i32, i32, ptr, ptr, ptr, ptr, ptr, ptr, ptr, ptr, ptr, ptr, ptr, double, ptr, ptr, ptr, ptr, ptr, ptr, ptr, ptr, ptr, ptr, ptr }
%"class.Ipopt::TNLP.base" = type { %"class.Ipopt::ReferencedObject.base" }
%"class.Ipopt::ReferencedObject.base" = type <{ ptr, i32 }>
%"class.Ipopt::SmartPtr" = type { ptr }

; Function Attrs: mustprogress uwtable
define void @_ZN5Ipopt16StdInterfaceTNLP11apply_new_xEbiPKd(ptr noundef nonnull align 8 dereferenceable(264) %0, i1 noundef zeroext %1, i32 noundef %2, ptr noundef %3) #0 align 2 {
  %5 = alloca ptr, align 8
  %6 = alloca i8, align 1
  %7 = alloca i32, align 4
  %8 = alloca ptr, align 8
  store ptr %0, ptr %5, align 8
  %9 = zext i1 %1 to i8
  store i8 %9, ptr %6, align 1
  store i32 %2, ptr %7, align 4
  store ptr %3, ptr %8, align 8
  %10 = load ptr, ptr %5, align 8
  %11 = load i8, ptr %6, align 1
  %12 = trunc i8 %11 to i1
  br i1 %12, label %13, label %31

13:                                               ; preds = %4
  %14 = getelementptr inbounds %"class.Ipopt::StdInterfaceTNLP", ptr %10, i32 0, i32 25
  %15 = load ptr, ptr %14, align 8
  %16 = icmp eq ptr %15, null
  br i1 %16, label %17, label %26

17:                                               ; preds = %13
  %18 = load i32, ptr %7, align 4
  %19 = sext i32 %18 to i64
  %20 = call { i64, i1 } @llvm.umul.with.overflow.i64(i64 %19, i64 8)
  %21 = extractvalue { i64, i1 } %20, 1
  %22 = extractvalue { i64, i1 } %20, 0
  %23 = select i1 %21, i64 -1, i64 %22
  %24 = call noalias noundef nonnull ptr @_Znam(i64 noundef %23) #12
  %25 = getelementptr inbounds %"class.Ipopt::StdInterfaceTNLP", ptr %10, i32 0, i32 25
  store ptr %24, ptr %25, align 8
  br label %26

26:                                               ; preds = %17, %13
  %27 = load i32, ptr %7, align 4
  %28 = load ptr, ptr %8, align 8
  %29 = getelementptr inbounds %"class.Ipopt::StdInterfaceTNLP", ptr %10, i32 0, i32 25
  %30 = load ptr, ptr %29, align 8
  call void @_ZN5Ipopt10IpBlasCopyEiPKdiPdi(i32 noundef %27, ptr noundef %28, i32 noundef 1, ptr noundef %30, i32 noundef 1)
  br label %31

31:                                               ; preds = %26, %4
  ret void
}

; Function Attrs: mustprogress uwtable
define noundef zeroext i1 @_ZN5Ipopt16StdInterfaceTNLP11eval_grad_fEiPKdbPd(ptr noundef nonnull align 8 dereferenceable(264) %0, i32 noundef %1, ptr noundef %2, i1 noundef zeroext %3, ptr noundef %4) unnamed_addr #0 align 2 {
  %6 = alloca ptr, align 8
  %7 = alloca i32, align 4
  %8 = alloca ptr, align 8
  %9 = alloca i8, align 1
  %10 = alloca ptr, align 8
  %11 = alloca i8, align 1
  store ptr %0, ptr %6, align 8
  store i32 %1, ptr %7, align 4
  store ptr %2, ptr %8, align 8
  %12 = zext i1 %3 to i8
  store i8 %12, ptr %9, align 1
  store ptr %4, ptr %10, align 8
  %13 = load ptr, ptr %6, align 8
  %14 = load i8, ptr %9, align 1
  %15 = trunc i8 %14 to i1
  %16 = load i32, ptr %7, align 4
  %17 = load ptr, ptr %8, align 8
  call void @_ZN5Ipopt16StdInterfaceTNLP11apply_new_xEbiPKd(ptr noundef nonnull align 8 dereferenceable(264) %13, i1 noundef zeroext %15, i32 noundef %16, ptr noundef %17)
  %18 = getelementptr inbounds %"class.Ipopt::StdInterfaceTNLP", ptr %13, i32 0, i32 17
  %19 = load ptr, ptr %18, align 8
  %20 = load i32, ptr %7, align 4
  %21 = getelementptr inbounds %"class.Ipopt::StdInterfaceTNLP", ptr %13, i32 0, i32 25
  %22 = load ptr, ptr %21, align 8
  %23 = load i8, ptr %9, align 1
  %24 = trunc i8 %23 to i1
  %25 = load ptr, ptr %10, align 8
  %26 = getelementptr inbounds %"class.Ipopt::StdInterfaceTNLP", ptr %13, i32 0, i32 21
  %27 = load ptr, ptr %26, align 8
  %28 = call noundef zeroext i1 %19(i32 noundef %20, ptr noundef %22, i1 noundef zeroext %24, ptr noundef %25, ptr noundef %27)
  %29 = zext i1 %28 to i8
  store i8 %29, ptr %11, align 1
  %30 = load i8, ptr %11, align 1
  %31 = trunc i8 %30 to i1
  %32 = zext i1 %31 to i32
  %33 = icmp ne i32 %32, 0
  ret i1 %33
}